target datalayout = "e-m:e-p270:32:32-p271:32:32-p272:64:64-i64:64-i128:128-f80:128-n8:16:32:64-S128"
target triple = "x86_64-pc-linux-gnu"

%"struct.icu_77::FormattedStringBuilder::Field" = type { i8 }
%"class.icu_77::number::impl::NumberFormatterImpl" = type { ptr, %"struct.icu_77::number::impl::MicroProps", %"class.icu_77::LocalPointer", %"class.icu_77::LocalPointer.6", %"class.icu_77::LocalPointer.8", %"class.icu_77::LocalPointer.10", %"class.icu_77::LocalPointer.12", %"class.icu_77::LocalPointer.14", %"class.icu_77::LocalPointer.16", %"class.icu_77::LocalPointer.18", %"class.icu_77::LocalPointer.20", %"class.icu_77::LocalPointer.22", %"class.icu_77::LocalPointer.24", %"class.icu_77::LocalPointer.26" }
%"struct.icu_77::number::impl::MicroProps" = type <{ %"class.icu_77::number::impl::MicroPropsGenerator", %"struct.icu_77::number::impl::SimpleMicroProps", %"class.icu_77::number::impl::RoundingImpl", %"class.icu_77::number::impl::Padder", %"class.icu_77::number::IntegerWidth", i32, [9 x i8], [3 x i8], ptr, ptr, ptr, ptr, %struct.anon.4, %"class.icu_77::MeasureUnit", %"class.icu_77::number::impl::IntMeasures", i32, i32, i8, [7 x i8] }>
%"class.icu_77::number::impl::MicroPropsGenerator" = type { ptr }
%"struct.icu_77::number::impl::SimpleMicroProps" = type { [4 x i8], %"class.icu_77::number::impl::Grouper", i8, i32, %"class.icu_77::UnicodeString", ptr }
%"class.icu_77::number::impl::Grouper" = type { i16, i16, i16, i32 }
%"class.icu_77::UnicodeString" = type { %"class.icu_77::Replaceable", %"union.icu_77::UnicodeString::StackBufferOrFields" }
%"class.icu_77::Replaceable" = type { %"class.icu_77::UObject" }
%"class.icu_77::UObject" = type { ptr }
%"union.icu_77::UnicodeString::StackBufferOrFields" = type { %struct.anon.0, [32 x i8] }
%struct.anon.0 = type { i16, i32, i32, ptr }
%"class.icu_77::number::impl::RoundingImpl" = type <{ %"class.icu_77::number::Precision", i32, i8, [3 x i8] }>
%"class.icu_77::number::Precision" = type <{ i32, [4 x i8], %"union.icu_77::number::Precision::PrecisionUnion", i32, [4 x i8] }>
%"union.icu_77::number::Precision::PrecisionUnion" = type { %"struct.icu_77::number::Precision::PrecisionUnion::IncrementSettings" }
%"struct.icu_77::number::Precision::PrecisionUnion::IncrementSettings" = type { i64, i16, i16 }
%"class.icu_77::number::impl::Padder" = type { i32, %union.anon }
%union.anon = type { %struct.anon.1 }
%struct.anon.1 = type { i32, i32 }
%"class.icu_77::number::IntegerWidth" = type <{ %union.anon.2, i8, [3 x i8] }>
%union.anon.2 = type { i32, [4 x i8] }
%struct.anon.4 = type { %"class.icu_77::number::impl::ScientificModifier", %"class.icu_77::number::impl::EmptyModifier", %"class.icu_77::number::impl::EmptyModifier", %"class.icu_77::number::impl::MultiplierFormatHandler", %"class.icu_77::number::impl::SimpleModifier" }
%"class.icu_77::number::impl::ScientificModifier" = type { %"class.icu_77::number::impl::Modifier", i32, ptr }
%"class.icu_77::number::impl::Modifier" = type { ptr }
%"class.icu_77::number::impl::EmptyModifier" = type <{ %"class.icu_77::number::impl::Modifier", i8, [7 x i8] }>
%"class.icu_77::number::impl::MultiplierFormatHandler" = type { %"class.icu_77::number::impl::MicroPropsGenerator", %"class.icu_77::number::Scale", ptr }
%"class.icu_77::number::Scale" = type <{ i32, [4 x i8], ptr, i32, [4 x i8] }>
%"class.icu_77::number::impl::SimpleModifier" = type { %"class.icu_77::number::impl::Modifier", %"class.icu_77::UnicodeString", %"struct.icu_77::FormattedStringBuilder::Field", i8, i32, i32, i32, %"struct.icu_77::number::impl::Modifier::Parameters" }
%"struct.icu_77::number::impl::Modifier::Parameters" = type { ptr, i32, i32 }
%"class.icu_77::MeasureUnit" = type <{ %"class.icu_77::UObject", ptr, i16, i8, [5 x i8] }>
%"class.icu_77::number::impl::IntMeasures" = type <{ %"class.icu_77::MaybeStackArray.5", i32, [4 x i8] }>
%"class.icu_77::MaybeStackArray.5" = type { ptr, i32, i8, [2 x i64] }
%"class.icu_77::LocalPointer" = type { %"class.icu_77::LocalPointerBase" }
%"class.icu_77::LocalPointerBase" = type { ptr }
%"class.icu_77::LocalPointer.6" = type { %"class.icu_77::LocalPointerBase.7" }
%"class.icu_77::LocalPointerBase.7" = type { ptr }
%"class.icu_77::LocalPointer.8" = type { %"class.icu_77::LocalPointerBase.9" }
%"class.icu_77::LocalPointerBase.9" = type { ptr }
%"class.icu_77::LocalPointer.10" = type { %"class.icu_77::LocalPointerBase.11" }
%"class.icu_77::LocalPointerBase.11" = type { ptr }
%"class.icu_77::LocalPointer.12" = type { %"class.icu_77::LocalPointerBase.13" }
%"class.icu_77::LocalPointerBase.13" = type { ptr }
%"class.icu_77::LocalPointer.14" = type { %"class.icu_77::LocalPointerBase.15" }
%"class.icu_77::LocalPointerBase.15" = type { ptr }
%"class.icu_77::LocalPointer.16" = type { %"class.icu_77::LocalPointerBase.17" }
%"class.icu_77::LocalPointerBase.17" = type { ptr }
%"class.icu_77::LocalPointer.18" = type { %"class.icu_77::LocalPointerBase.19" }
%"class.icu_77::LocalPointerBase.19" = type { ptr }
%"class.icu_77::LocalPointer.20" = type { %"class.icu_77::LocalPointerBase.21" }
%"class.icu_77::LocalPointerBase.21" = type { ptr }
%"class.icu_77::LocalPointer.22" = type { %"class.icu_77::LocalPointerBase.23" }
%"class.icu_77::LocalPointerBase.23" = type { ptr }
%"class.icu_77::LocalPointer.24" = type { %"class.icu_77::LocalPointerBase.25" }
%"class.icu_77::LocalPointerBase.25" = type { ptr }
%"class.icu_77::LocalPointer.26" = type { %"class.icu_77::LocalPointerBase.27" }
%"class.icu_77::LocalPointerBase.27" = type { ptr }

; Function Attrs: mustprogress nounwind uwtable
define linkonce_odr noundef ptr @_ZNK6icu_7716LocalPointerBaseINS_6number4impl22MutablePatternModifierEEptEv(ptr noundef nonnull align 8 dereferenceable(8) %0) #0 comdat align 2 {
  %2 = alloca ptr, align 8
  store ptr %0, ptr %2, align 8, !tbaa !147
  %3 = load ptr, ptr %2, align 8
  %4 = getelementptr inbounds nuw %"class.icu_77::LocalPointerBase.17", ptr %3, i32 0, i32 0
  %5 = load ptr, ptr %4, align 8, !tbaa !149
  ret ptr %5
}

; Function Attrs: inlinehint mustprogress nounwind uwtable
define internal noundef signext i8 @_ZL9U_FAILURE10UErrorCode(i32 noundef %0) #2 {
  %2 = alloca i32, align 4
  store i32 %0, ptr %2, align 4, !tbaa !15
  %3 = load i32, ptr %2, align 4, !tbaa !15
  %4 = icmp sgt i32 %3, 0
  %5 = zext i1 %4 to i8
  ret i8 %5
}

; Function Attrs: mustprogress uwtable
define noundef i32 @_ZN6icu_776number4impl19NumberFormatterImpl21getPrefixSuffixUnsafeENS1_6SignumENS_14StandardPlural4FormERNS_22FormattedStringBuilderER10UErrorCode(ptr noundef nonnull align 8 dereferenceable(600) %0, i32 noundef %1, i32 noundef %2, ptr noundef nonnull align 8 dereferenceable(136) %3, ptr noundef nonnull align 4 dereferenceable(4) %4) #1 align 2 {
  %6 = alloca i32, align 4
  %7 = alloca ptr, align 8
  %8 = alloca i32, align 4
  %9 = alloca i32, align 4
  %10 = alloca ptr, align 8
  %11 = alloca ptr, align 8
  store ptr %0, ptr %7, align 8, !tbaa !23
  store i32 %1, ptr %8, align 4, !tbaa !138
  store i32 %2, ptr %9, align 4, !tbaa !139
  store ptr %3, ptr %10, align 8, !tbaa !111
  store ptr %4, ptr %11, align 8, !tbaa !22
  %12 = load ptr, ptr %7, align 8
  %13 = load ptr, ptr %11, align 8, !tbaa !22
  %14 = load i32, ptr %13, align 4, !tbaa !15
  %15 = call noundef signext i8 @_ZL9U_FAILURE10UErrorCode(i32 noundef %14)
  %16 = icmp ne i8 %15, 0
  br i1 %16, label %17, label %18

17:                                               ; preds = %5
  store i32 0, ptr %6, align 4
  br label %43

18:                                               ; preds = %5
  %19 = getelementptr inbounds nuw %"class.icu_77::number::impl::NumberFormatterImpl", ptr %12, i32 0, i32 8
  %20 = call noundef ptr @_ZNK6icu_7716LocalPointerBaseINS_6number4impl22MutablePatternModifierEEptEv(ptr noundef nonnull align 8 dereferenceable(8) %19)
  %21 = load i32, ptr %8, align 4, !tbaa !138
  %22 = load i32, ptr %9, align 4, !tbaa !139
  call void @_ZN6icu_776number4impl22MutablePatternModifier19setNumberPropertiesENS1_6SignumENS_14StandardPlural4FormE(ptr noundef nonnull align 8 dereferenceable(392) %20, i32 noundef %21, i32 noundef %22)
  %23 = getelementptr inbounds nuw %"class.icu_77::number::impl::NumberFormatterImpl", ptr %12, i32 0, i32 8
  %24 = call noundef ptr @_ZNK6icu_7716LocalPointerBaseINS_6number4impl22MutablePatternModifierEEptEv(ptr noundef nonnull align 8 dereferenceable(8) %23)
  %25 = load ptr, ptr %10, align 8, !tbaa !111
  %26 = load ptr, ptr %11, align 8, !tbaa !22
  %27 = load ptr, ptr %24, align 8, !tbaa !128
  %28 = getelementptr inbounds ptr, ptr %27, i64 3
  %29 = load ptr, ptr %28, align 8
  %30 = call noundef i32 %29(ptr noundef nonnull align 8 dereferenceable(392) %24, ptr noundef nonnull align 8 dereferenceable(136) %25, i32 noundef 0, i32 noundef 0, ptr noundef nonnull align 4 dereferenceable(4) %26)
  %31 = load ptr, ptr %11, align 8, !tbaa !22
  %32 = load i32, ptr %31, align 4, !tbaa !15
  %33 = call noundef signext i8 @_ZL9U_FAILURE10UErrorCode(i32 noundef %32)
  %34 = icmp ne i8 %33, 0
  br i1 %34, label %35, label %36

35:                                               ; preds = %18
  store i32 0, ptr %6, align 4
  br label %43

36:                                               ; preds = %18
  %37 = getelementptr inbounds nuw %"class.icu_77::number::impl::NumberFormatterImpl", ptr %12, i32 0, i32 8
  %38 = call noundef ptr @_ZNK6icu_7716LocalPointerBaseINS_6number4impl22MutablePatternModifierEEptEv(ptr noundef nonnull align 8 dereferenceable(8) %37)
  %39 = load ptr, ptr %38, align 8, !tbaa !128
  %40 = getelementptr inbounds ptr, ptr %39, i64 4
  %41 = load ptr, ptr %40, align 8
  %42 = call noundef i32 %41(ptr noundef nonnull align 8 dereferenceable(392) %38)
  store i32 %42, ptr %6, align 4
  br label %43

43:                                               ; preds = %36, %35, %17
  %44 = load i32, ptr %6, align 4
  ret i32 %44
}