; Function Attrs: mustprogress uwtable
define noundef i32 @_ZN6icu_776number4impl19NumberFormatterImpl21getPrefixSuffixUnsafeENS1_6SignumENS_14StandardPlural4FormERNS_22FormattedStringBuilderER10UErrorCode(ptr noundef nonnull readonly align 8 captures(none) dereferenceable(600) %0, i32 noundef %1, i32 noundef %2, ptr noundef nonnull align 8 dereferenceable(136) %3, ptr noundef nonnull align 4 dereferenceable(4) %4) local_unnamed_addr #1 align 2 {
  %6 = load i32, ptr %4, align 4, !tbaa !13
  %7 = icmp slt i32 %6, 1
  br i1 %7, label %8, label %24

8:                                                ; preds = %5
  %9 = getelementptr inbounds nuw i8, ptr %0, i64 552
  %10 = load ptr, ptr %9, align 8, !tbaa !99
  tail call void @_ZN6icu_776number4impl22MutablePatternModifier19setNumberPropertiesENS1_6SignumENS_14StandardPlural4FormE(ptr noundef nonnull align 8 dereferenceable(392) %10, i32 noundef %1, i32 noundef %2)
  %11 = load ptr, ptr %9, align 8, !tbaa !99
  %12 = load ptr, ptr %11, align 8, !tbaa !93
  %13 = getelementptr inbounds nuw i8, ptr %12, i64 24
  %14 = load ptr, ptr %13, align 8
  %15 = tail call noundef i32 %14(ptr noundef nonnull align 8 dereferenceable(392) %11, ptr noundef nonnull align 8 dereferenceable(136) %3, i32 noundef 0, i32 noundef 0, ptr noundef nonnull align 4 dereferenceable(4) %4)
  %16 = load i32, ptr %4, align 4, !tbaa !13
  %17 = icmp slt i32 %16, 1
  br i1 %17, label %18, label %24

18:                                               ; preds = %8
  %19 = load ptr, ptr %9, align 8, !tbaa !99
  %20 = load ptr, ptr %19, align 8, !tbaa !93
  %21 = getelementptr inbounds nuw i8, ptr %20, i64 32
  %22 = load ptr, ptr %21, align 8
  %23 = tail call noundef i32 %22(ptr noundef nonnull align 8 dereferenceable(392) %19)
  br label %24

24:                                               ; preds = %8, %5, %18
  %.0 = phi i32 [ %23, %18 ], [ 0, %5 ], [ 0, %8 ]
  ret i32 %.0
}